(lp0
(lp1
(lp2
(lp3
F97.71428571428571
aF93.95555555555555
aF91.88888888888889
aa(lp4
F100.0
aF96.47368421052632
aF97.33333333333333
aa(lp5
F100.0
aF97.4
aF97.49253731343283
aa(lp6
F98.2
aF92.0
aF96.5925925925926
aF90.2121212121212
aa(lp7
F99.0
aF70.72727272727273
aF91.0
aF86.45833333333334
aF84.89147286821706
aa(lp8
F99.29411764705883
aF99.13513513513513
aF99.58620689655173
aa(lp9
F99.6
aF65.05882352941177
aF98.18181818181819
aa(lp10
F92.18518518518519
aF10.055555555555555
aF97.06451612903226
aa(lp11
F100.0
aF100.0
aF99.11764705882354
aF81.06349206349206
aa(lp12
F98.94117647058823
aF99.0
aF15.533333333333333
aF91.17708333333334
aa(lp13
F99.0909090909091
aF92.85714285714286
aF94.6
aF93.21428571428571
aF95.42857142857143
aF99.63636363636364
aF95.45454545454545
aF26.016460905349792
aa(lp14
F100.0
aF95.16666666666667
aF78.78125
aa(lp15
F27.571428571428573
aF97.08695652173913
aF5.334422657952069
aa(lp16
F100.0
aF90.63636363636364
aF11.214285714285714
aa(lp17
F100.0
aF95.5
aF98.54545454545455
aF98.66666666666667
aF71.1111111111111
aF88.25396825396827
aa(lp18
F93.71428571428571
aF97.57142857142857
aF14.722222222222221
aF90.84848484848484
aa(lp19
F99.1
aF83.0
aF87.1219512195122
aF78.98076923076923
aa(lp20
F98.47368421052632
aF98.4
aF48.416666666666664
aF9.76377217553688
aa(lp21
F99.42857142857143
aF97.79166666666667
aF82.0
aa(lp22
F100.0
aF98.7
aF76.37878787878789
aa(lp23
F99.41935483870968
aF98.125
aF99.5
aF99.17857142857143
aa(lp24
F96.1842105263158
aF72.0952380952381
aF99.88
aa(lp25
F89.31818181818183
aF48.466666666666676
aF98.1304347826087
aF98.4
aF99.33333333333333
aa(lp26
F98.69565217391305
aF4.935714285714285
aF44.0
aF19.88888888888889
aa(lp27
F88.38095238095238
aF29.27240143369175
aF41.666666666666664
aF19.095833333333335
aa(lp28
F27.81746031746032
aF74.25925925925927
aF95.70588235294117
aF98.0
aF97.70833333333333
aF85.58823529411765
aF98.58064516129032
aa(lp29
F95.0
aF98.61538461538461
aF94.83333333333333
aF91.94285714285714
aa(lp30
F100.0
aF97.0
aF96.0625
aF79.18181818181819
aF96.73809523809524
aa(lp31
F98.45454545454545
aF93.72
aF94.94017094017094
aa(lp32
F97.66666666666667
aF16.859848484848484
aF14.372222222222222
aF4.76747311827957
aa(lp33
F83.59722222222223
aF76.92708333333334
aF99.21052631578948
aa(lp34
F97.78571428571429
aF19.158730158730158
aF62.833333333333336
aF94.90322580645162
aF86.5
aF77.75757575757576
aa(lp35
F80.9074074074074
aF58.12962962962964
aF4.8121212121212125
aa(lp36
F93.9375
aF97.11111111111111
aF81.79069767441861
aF92.8
aa(lp37
F88.94736842105263
aF99.42857142857143
aF97.6470588235294
aF97.52631578947368
aF87.30392156862744
aa(lp38
F97.34408602150539
aF97.39285714285714
aF96.33333333333333
aa(lp39
F98.48387096774194
aF93.04545454545455
aF83.11111111111111
aa(lp40
F99.8
aF96.57142857142857
aF94.76923076923077
aa(lp41
F99.96
aF81.16666666666667
aF84.49382716049384
aF23.658119658119656
aa(lp42
F97.76923076923077
aF81.09523809523809
aF95.82051282051282
aF96.2
aa(lp43
F99.52777777777777
aF58.62499999999999
aF18.17283950617284
aa(lp44
F99.4
aF99.5
aF100.0
aF96.66666666666667
aF47.12903225806452
aF96.94285714285714
aa(lp45
F99.4
aF99.27272727272727
aF57.74074074074075
aF77.90243902439025
aa(lp46
F91.76923076923077
aF76.64285714285714
aF78.27272727272727
aF97.16666666666667
aF68.05555555555556
aF94.6
aF64.16666666666666
aaa(lp47
(lp48
F100.0
aF84.96078431372548
aF79.31666666666666
aa(lp49
F98.4
aF96.04347826086956
aF96.0
aa(lp50
F97.25
aF92.0
aF99.4
aa(lp51
F100.0
aF96.44444444444444
aF44.8
aF96.0
aa(lp52
F98.15789473684211
aF97.16666666666667
aF94.0
aF95.33333333333333
aF89.60833333333333
aa(lp53
F97.77777777777777
aF98.62962962962963
aF100.0
aa(lp54
F100.0
aF100.0
aF93.15151515151516
aa(lp55
F99.75
aF98.88888888888889
aF97.92
aa(lp56
F92.0
aF0.0
aF93.37142857142857
aI0
aa(lp57
F99.33333333333333
aF99.42857142857143
aF78.29032258064517
aF98.6086956521739
aa(lp58
F100.0
aF99.14285714285714
aF74.0
aF82.5625
aF91.9
aF67.57142857142857
aF98.66666666666667
aF88.39285714285714
aa(lp59
F98.77777777777777
aF97.45454545454545
aF99.08333333333333
aa(lp60
F100.0
aF96.2
aF85.53846153846153
aa(lp61
F93.84057971014494
aF91.8529411764706
aF10.458333333333334
aa(lp62
F97.05882352941177
aF97.33333333333333
aF100.0
aF95.0
aF88.21875
aF83.47368421052632
aa(lp63
F83.625
aF95.56521739130434
aF74.71428571428571
aF92.55882352941177
aa(lp64
F78.4
aF98.26666666666667
aF99.30434782608695
aF97.05714285714286
aa(lp65
F90.0
aF92.25000000000001
aF94.33333333333333
aF2.7165627165627155
aa(lp66
F97.77777777777777
aF96.66666666666667
aF96.82539682539682
aa(lp67
F95.66666666666667
aF99.6470588235294
aF86.57575757575756
aa(lp68
F99.78947368421052
aF99.33333333333333
aF97.84615384615387
aF91.12962962962962
aa(lp69
F91.45161290322581
aF80.25
aF79.44444444444444
aa(lp70
F98.6
aF95.16666666666667
aF81.66666666666667
aF94.5
aF99.61904761904762
aa(lp71
F96.75
aF98.63157894736842
aF100.0
aF99.56
aa(lp72
F100.0
aF93.58823529411765
aF23.408888888888885
aF95.66666666666667
aa(lp73
F94.52631578947368
aF90.63636363636364
aF97.88235294117646
aF100.0
aF97.77777777777777
aF93.14492753623188
aF91.58064516129032
aa(lp74
F98.28571428571429
aF98.4
aF99.23529411764706
aF95.3
aa(lp75
F100.0
aF100.0
aF97.375
aF95.22222222222223
aF98.55882352941177
aa(lp76
F100.0
aF96.05882352941177
aF79.22222222222223
aa(lp77
F100.0
aF97.27272727272727
aF71.02564102564102
aF90.65517241379311
aa(lp78
F96.57142857142857
aF97.45833333333333
aF99.42857142857143
aa(lp79
F100.0
aF97.5
aF75.72222222222221
aF73.97619047619047
aF95.88888888888889
aF93.19354838709677
aa(lp80
F99.45454545454545
aF76.2063492063492
aF73.12121212121211
aa(lp81
F100.0
aF100.0
aF82.66
aF94.0
aa(lp82
F99.2
aF100.0
aF98.95
aF99.2
aF87.04545454545455
aa(lp83
F98.375
aF100.0
aF98.26666666666667
aa(lp84
F100.0
aF99.0
aF99.75
aa(lp85
F96.95238095238095
aF60.13333333333333
aF85.8989898989899
aa(lp86
F100.0
aF97.81818181818181
aF93.69565217391305
aF83.31944444444444
aa(lp87
F99.4
aF97.42857142857143
aF95.80555555555556
aF100.0
aa(lp88
F94.50666666666667
aF62.73076923076922
aF72.07936507936508
aa(lp89
F96.16666666666667
aF100.0
aF100.0
aF99.17647058823529
aF93.0
aF89.75
aa(lp90
F100.0
aF100.0
aF96.33333333333333
aF22.17283950617284
aa(lp91
F98.58333333333333
aF98.66666666666667
aF100.0
aF95.77777777777777
aF96.2
aF98.5
aF98.17142857142858
aaa(lp92
(lp93
F97.2
aF98.97619047619048
aF13.881578947368421
aa(lp94
F99.0
aF95.44
aF92.0
aa(lp95
F96.76923076923077
aF92.0
aF96.62162162162163
aa(lp96
F90.0
aF45.47619047619047
aF34.99999999999998
aF32.22222222222222
aa(lp97
F100.0
aF83.4375
aF79.59259259259258
aF68.0
aF98.33333333333333
aa(lp98
F16.900584795321635
aF98.75757575757575
aF96.66666666666667
aa(lp99
F79.0925925925926
aF97.27272727272727
aF91.5
aa(lp100
F5.0
aF98.48
aF91.97435897435898
aa(lp101
F99.6
aF92.26666666666667
aF96.25
aF86.86111111111111
aa(lp102
F97.94444444444444
aF65.77083333333334
aF28.397530864197527
aF85.54545454545455
aa(lp103
F77.4074074074074
aF96.28571428571429
aF97.33333333333333
aF96.1
aF18.333333333333336
aF57.15
aF95.25
aF97.8
aa(lp104
F92.0
aF89.17391304347827
aF98.3170731707317
aa(lp105
F24.551440329218106
aF5.199346405228758
aF8.468749999999998
aa(lp106
F100.0
aF98.3170731707317
aF85.63157894736842
aa(lp107
F99.27272727272727
aF95.66666666666667
aF97.25
aF99.0
aF92.2
aF96.23076923076923
aa(lp108
F55.125
aF93.6
aI0
aI0
aa(lp109
F93.28985507246377
aF7.57
aF96.23809523809524
aF62.666666666666664
aa(lp110
F35.0
aF11.666666666666666
aF35.0
aF4.999999999999998
aa(lp111
F100.0
aF95.33333333333333
aF95.8
aa(lp112
F96.54545454545455
aF87.56666666666668
aF82.42857142857143
aa(lp113
F99.83333333333333
aF97.375
aF78.8
aF90.50314465408806
aa(lp114
F35.0
aF35.0
aF3.5
aa(lp115
F11.303333333333336
aF6.111111111111111
aF96.0
aI0
aF94.66666666666667
aa(lp116
F19.116666666666667
aF92.96969696969697
aF86.0
aF86.5
aa(lp117
F49.0
aF14.595833333333331
aF90.83333333333333
aF20.02564102564103
aa(lp118
F35.0
aI0
aF35.0
aF49.4
aI0
aF50.83333333333333
aF35.0
aa(lp119
F97.6
aF86.92857142857143
aF98.0
aF27.122807017543856
aa(lp120
F97.6
aF98.0
aF68.77777777777779
aF60.060606060606055
aF3.169230769230768
aa(lp121
F99.71428571428571
aF92.61538461538461
aF83.0
aa(lp122
F35.0
aF81.75
aF4.541666666666666
aI0
aa(lp123
F18.333333333333336
aF85.5
aF27.458937198067634
aaa(lp124
(lp125
F1.25
aF89.42857142857143
aF86.88888888888887
aa(lp126
F98.66666666666667
aF9.302083333333334
aF90.00877192982456
aa(lp127
F97.27272727272727
aF85.65217391304348
aF93.19148936170212
aa(lp128
F99.16666666666667
aF88.4375
aF13.3763440860215
aF87.52173913043478
aa(lp129
F100.0
aF19.375
aF99.5
aF55.31746031746031
aF94.21428571428571
aa(lp130
F99.27272727272727
aF98.4090909090909
aF98.56
aa(lp131
F85.0
aF16.801724137931036
aF81.14035087719299
aa(lp132
F35.0
aI0
aF26.666666666666668
aa(lp133
F100.0
aF99.61538461538461
aF96.27777777777777
aF64.69565217391305
aa(lp134
F89.83333333333333
aF81.44444444444444
aF73.40229885057472
aF73.44444444444444
aa(lp135
F82.08333333333333
aF86.71428571428571
aF87.0
aF9.027777777777777
aF22.04444444444444
aF17.5679012345679
aF98.42857142857143
aF4.544961240310078
aa(lp136
F80.0
aF97.14285714285714
aF94.44
aa(lp137
F77.93333333333334
aF5.392543859649121
aF12.141935483870968
aa(lp138
F96.25
aF75.94444444444444
aF11.787500000000001
aa(lp139
F98.53333333333333
aF94.5
aF88.17391304347827
aF89.74074074074073
aF17.875
aF79.6842105263158
aa(lp140
F41.666666666666664
aF91.0
aF35.0
aI0
aa(lp141
F90.1111111111111
aF96.85714285714286
aF9.497435897435896
aF88.18181818181819
aa(lp142
F99.33333333333333
aF98.0
aF71.5
aF1.1583195743900199
aa(lp143
F18.739583333333332
aF17.11764705882353
aF89.58771929824562
aa(lp144
F100.0
aF83.58974358974359
aF92.05555555555554
aa(lp145
F99.23076923076923
aF91.125
aF86.3157894736842
aF99.29032258064517
aa(lp146
F4.019897003745317
aF37.333333333333336
aF88.73333333333333
aa(lp147
F96.77777777777777
aF85.5
aF83.17647058823529
aI0
aF99.6
aa(lp148
F0.0
aF39.0
aF39.44444444444444
aF26.87631027253669
aa(lp149
F97.46666666666667
aF96.92592592592592
aF6.5976190476190455
aF83.08333333333333
aa(lp150
F89.5
aF15.531746031746033
aF83.94594594594595
aI0
aF98.54838709677419
aF60.095238095238095
aF97.16666666666666
aa(lp151
F94.28571428571429
aF13.38095238095238
aF95.93333333333334
aF2.6713178294573643
aa(lp152
F98.0952380952381
aF62.56321839080459
aF13.148148148148145
aF73.28571428571429
aF99.19298245614036
aa(lp153
F75.375
aF98.02173913043478
aF98.57142857142857
aa(lp154
F42.857142857142854
aF82.5
aF8.749999999999998
aF35.0
aa(lp155
F86.76190476190476
aF78.08571428571429
aF98.64102564102564
aaa(lp156
(lp157
F99.0
aF16.697674418604652
aF85.05
aa(lp158
F97.33333333333333
aF5.522222222222223
aF86.68376068376068
aa(lp159
F98.85714285714286
aF38.923076923076906
aF79.84313725490196
aa(lp160
F100.0
aF75.05555555555556
aF79.64285714285714
aF79.83333333333333
aa(lp161
F100.0
aF18.419753086419753
aF90.41666666666667
aF91.26666666666667
aF89.23655913978494
aa(lp162
F6.045045045045043
aF98.29411764705883
aF93.0
aa(lp163
F73.79166666666666
aF16.261363636363637
aF94.67647058823529
aa(lp164
F8.692307692307692
aF7.0
aF94.51612903225806
aa(lp165
F100.0
aF100.0
aF95.51724137931035
aF97.3125
aa(lp166
F96.45833333333333
aF100.0
aF11.724206349206348
aF90.66666666666667
aa(lp167
F100.0
aF94.33333333333333
aF91.2
aF98.0
aF52.28571428571428
aF94.88888888888889
aF96.71428571428571
aF11.032608695652172
aa(lp168
F92.0
aF87.68055555555556
aF97.92592592592592
aa(lp169
F78.11111111111111
aF6.325000000000001
aF77.62962962962963
aa(lp170
F97.5
aF13.736842105263158
aF88.35
aa(lp171
F96.4
aF98.0
aF98.66666666666667
aF98.42857142857143
aF24.975694444444443
aF84.85964912280701
aa(lp172
F93.33333333333333
aF75.45833333333333
aF35.0
aF13.795454545454543
aa(lp173
F99.57894736842105
aF100.0
aF96.88
aF91.29629629629629
aa(lp174
F98.4
aF96.0
aF83.03703703703702
aF1.206699346405229
aa(lp175
F94.66666666666667
aF19.112068965517242
aF98.20588235294117
aa(lp176
F100.0
aF71.5079365079365
aF97.54285714285714
aa(lp177
F99.14285714285714
aF9.698039215686276
aF93.53846153846153
aF96.3125
aa(lp178
F13.150793650793648
aF48.89999999999999
aF95.81818181818181
aa(lp179
F99.16666666666667
aF12.308333333333334
aF90.06060606060606
aF72.0
aF93.07692307692308
aa(lp180
F73.38888888888889
aF13.272727272727273
aF35.0
aF94.41666666666667
aa(lp181
F100.0
aF98.52
aF8.566666666666666
aF89.63157894736842
aa(lp182
F92.11111111111111
aF89.47058823529412
aF96.66666666666667
aF99.5
aF99.04761904761905
aF94.6842105263158
aF94.25
aa(lp183
F6.9263157894736835
aF8.133333333333335
aF70.76388888888889
aF10.325396825396822
aa(lp184
F85.33333333333334
aF54.33333333333332
aF61.66666666666667
aF75.1190476190476
aF61.916666666666664
aa(lp185
F98.0
aF97.71875
aF31.010416666666664
aa(lp186
F100.0
aF15.811507936507935
aF46.42105263157894
aF49.66666666666667
aa(lp187
F98.18181818181819
aF23.216374269005847
aF88.55555555555554
aa(lp188
F99.53846153846153
aF66.8
aF35.0
aF16.55555555555555
aF7.57
aF34.999999999999986
aa(lp189
F99.2
aF58.130434782608695
aF15.8203125
aa(lp190
F100.0
aF90.66666666666667
aF86.13513513513513
aF96.875
aa(lp191
F99.22222222222223
aF99.46666666666667
aF85.33333333333333
aF97.76923076923077
aF5.811728395061728
aa(lp192
F68.22222222222221
aF82.30434782608695
aF87.8
aa(lp193
F96.69767441860465
aF78.73737373737373
aF29.065134099616856
aa(lp194
F99.11111111111111
aF6.101449275362317
aF87.59259259259258
aa(lp195
F95.64285714285714
aF66.41666666666667
aF86.55555555555556
aF96.57142857142857
aa(lp196
F0.0
aF0.0
aF2.873626373626373
aF72.55555555555556
aa(lp197
F98.76923076923077
aF15.794444444444446
aF89.17283950617283
aa(lp198
F93.81818181818181
aF3.544186046511628
aF99.0
aF88.8
aF35.0
aF91.0
aa(lp199
F75.92063492063491
aF99.33333333333333
aF96.70588235294117
aF11.962962962962964
aa(lp200
F97.9090909090909
aF82.06666666666666
aF92.66666666666667
aF98.44444444444444
aF97.6
aF98.23529411764706
aF92.28333333333333
aaa(lp201
(lp202
F0.0
aF0.9643655489809334
aF38.333333333333336
aa(lp203
F84.66666666666667
aF92.75
aF22.1358024691358
aa(lp204
F11.720486111111109
aF35.0
aF96.01639344262296
aa(lp205
F97.57894736842105
aF87.13333333333334
aF92.01886792452831
aF23.397435897435894
aa(lp206
F82.0
aI0
aF91.71428571428571
aF72.53333333333333
aF69.7948717948718
aa(lp207
F77.70588235294117
aF96.35714285714286
aF21.669117647058822
aa(lp208
F93.66666666666667
aF98.93103448275862
aF85.66666666666667
aa(lp209
F67.52499999999999
aF63.365591397849464
aF89.37142857142857
aa(lp210
F35.0
aF70.61403508771929
aI0
aF68.4
aa(lp211
F88.875
aF99.4
aF80.27868852459017
aF3.8303167420814477
aa(lp212
F99.33333333333333
aF94.9090909090909
aF21.841269841269842
aF99.375
aF95.14285714285714
aF89.22380952380952
aF87.25
aF71.8768115942029
aa(lp213
F21.473429951690818
aF98.5
aI0
aa(lp214
F96.5
aF86.7
aF7.235294117647058
aa(lp215
F86.55555555555554
aF96.0
aF11.666666666666663
aa(lp216
F88.46969696969697
aF82.84210526315789
aF93.38461538461539
aF94.61904761904762
aF82.37083333333332
aF92.88888888888889
aa(lp217
F96.88888888888889
aF98.15789473684211
aF66.92307692307692
aF4.099415204678363
aa(lp218
F100.0
aF99.6
aF3.42283950617284
aF11.682539682539682
aa(lp219
F99.5
aF90.57142857142857
aF20.084444444444447
aF6.204040404040404
aa(lp220
F98.5
aF90.96774193548387
aF86.0
aa(lp221
F100.0
aF98.3076923076923
aF92.0
aa(lp222
F97.36842105263158
aF95.8
aF98.05263157894737
aF88.96666666666667
aa(lp223
F11.974074074074073
aF17.259259259259256
aF95.0
aa(lp224
F74.46428571428571
aF92.125
aF98.4
aF15.688888888888886
aF94.54545454545455
aa(lp225
F12.038759689922479
aF99.81818181818181
aF97.85714285714286
aI0
aa(lp226
F97.875
aF95.875
aF46.873015873015866
aF93.12903225806451
aa(lp227
F99.6
aF81.63157894736842
aF74.8888888888889
aF99.5
aF97.27777777777777
aF78.65714285714286
aF97.18181818181819
aa(lp228
F86.77777777777779
aF89.65476190476191
aF99.3
aF82.76851851851852
aa(lp229
F95.77777777777777
aF99.0
aF93.08333333333333
aF88.88888888888887
aF94.95959595959596
aa(lp230
F100.0
aF98.02777777777777
aF96.0
aa(lp231
F97.79310344827586
aF82.02222222222221
aF79.30555555555556
aF25.91269841269841
aa(lp232
F25.463888888888885
aF97.34375
aF96.4
aa(lp233
F98.28571428571429
aF95.05
aF96.6
aF99.33333333333333
aF75.23148148148148
aF93.27619047619048
aa(lp234
F95.04545454545455
aF88.1
aF8.586834733893557
aa(lp235
F85.98039215686275
aF76.57575757575758
aF83.82456140350877
aF100.0
aa(lp236
F82.47826086956522
aF99.4
aF98.0
aF89.5
aF74.21929824561404
aa(lp237
F100.0
aF98.82142857142857
aF98.27777777777777
aa(lp238
F98.0
aF93.8
aI0
aa(lp239
F91.17647058823529
aF8.674074074074072
aF72.47619047619047
aa(lp240
F96.6774193548387
aF24.500000000000004
aF85.65656565656566
aF98.07142857142857
aa(lp241
F98.08108108108108
aF82.07692307692308
aF84.79781420765028
aF99.63636363636364
aa(lp242
F96.29078014184398
aF12.265151515151514
aF93.1470588235294
aa(lp243
F95.5625
aF100.0
aF98.0
aF80.10606060606061
aF98.3529411764706
aF69.52688172043011
aa(lp244
F98.11764705882354
aF98.13333333333334
aF91.21875
aF64.3235294117647
aa(lp245
F93.25
aF97.36842105263158
aF99.33333333333333
aF97.88888888888889
aF78.83333333333333
aF99.375
aF94.46078431372548
aaa(lp246
(lp247
F97.71428571428571
aF4.567099567099567
aF8.18326118326118
aa(lp248
F95.6
aF10.175925925925926
aF93.26470588235294
aa(lp249
F100.0
aF99.05555555555556
aF100.0
aa(lp250
F93.66666666666667
aI0
aF75.83333333333334
aF61.5
aa(lp251
F90.4
aF51.962962962962955
aF82.73333333333333
aF98.0909090909091
aF96.4
aa(lp252
F99.875
aF91.65873015873015
aF7.0
aa(lp253
F92.25
aI0
aF96.16
aa(lp254
F84.35714285714286
aF80.06060606060606
aF39.06666666666667
aa(lp255
F97.42857142857143
aF100.0
aF78.0877192982456
aF85.24731182795698
aa(lp256
F97.41666666666667
aF13.125
aF20.918154761904763
aF59.3
aa(lp257
F99.75
aF99.0
aF99.55555555555556
aF19.416666666666664
aF77.14285714285714
aF89.33333333333333
aF74.44444444444444
aF3.8790849673202605
aa(lp258
F90.33333333333333
aF98.54166666666667
aF11.460905349794231
aa(lp259
F35.0
aF6.148664343786295
aF4.079797979797979
aa(lp260
F100.0
aF17.424242424242422
aF12.612345679012344
aa(lp261
F89.6
aF74.77777777777777
aF76.52380952380952
aF98.61538461538461
aF99.75
aF66.64102564102565
aa(lp262
F0.0
aF11.083333333333334
aI0
aF35.0
aa(lp263
F71.0
aF91.0
aF65.47826086956522
aF3.1944444444444464
aa(lp264
F100.0
aF100.0
aF84.30555555555556
aF0.6481481481481484
aa(lp265
F98.85714285714286
aF5.095238095238094
aF84.96568627450979
aa(lp266
F99.66666666666667
aF100.0
aF91.45454545454545
aa(lp267
F99.4
aF43.15
aF11.888888888888888
aF87.20588235294117
aa(lp268
F86.60256410256412
aF62.01960784313725
aI0
aF1.7469635627530362
aa(lp269
F95.875
aF66.54761904761904
aF78.02564102564102
aF99.0
aF98.72
aa(lp270
F6.611111111111111
aF4.9109195402298855
aF4.999999999999999
aa(lp271
F35.0
aF81.08333333333333
aF35.0
aF8.135416666666668
aa(lp272
F98.96551724137932
aF91.61904761904762
aF29.111111111111107
aa(lp273
F93.71428571428571
aF74.4
aF90.66666666666667
aF86.02777777777777
aF5.657575757575758
aF46.5
aa(lp274
F100.0
aF95.38235294117646
aF20.142222222222223
aa(lp275
F81.86666666666666
aF12.006666666666668
aF1.4730158730158727
aF94.2
aa(lp276
F2.2083333333333335
aF62.0
aI0
aI0
aF4.633699633699634
aa(lp277
F16.145833333333332
aF98.34615384615384
aF99.84615384615384
aa(lp278
F93.08695652173913
aF98.46666666666667
aF97.36842105263158
aa(lp279
F3.7809829059829054
aF1.970995670995671
aF6.111111111111112
aa(lp280
F96.53846153846153
aF75.33333333333334
aF65.72727272727273
aF94.95652173913044
aa(lp281
F3.0847953216374258
aF42.124999999999986
aF35.0
aF11.049382716049378
aa(lp282
F99.33333333333333
aF6.620535714285714
aF83.5625
aa(lp283
F93.28571428571429
aF100.0
aF100.0
aF98.9090909090909
aF97.28571428571429
aF2.5608974358974357
aa(lp284
F98.36363636363636
aF98.36363636363636
aF66.26315789473684
aF96.25
aa(lp285
F56.31666666666668
aF8.412698412698413
aF95.0
aF99.18181818181819
aF80.10416666666666
aF97.6470588235294
aF73.07246376811595
aaa(lp286
(lp287
F98.6
aF12.734615384615385
aF62.16666666666667
aa(lp288
F96.2
aF28.414414414414413
aF14.395238095238096
aa(lp289
F97.0
aF73.38541666666667
aF93.6734693877551
aa(lp290
F99.63636363636364
aF56.416666666666664
aF11.472222222222218
aF70.79166666666667
aa(lp291
F98.5
aF93.55555555555556
aF73.44444444444444
aF9.386666666666667
aF75.77777777777777
aa(lp292
F95.28571428571429
aF94.38888888888889
aF99.14285714285714
aa(lp293
F88.22222222222221
aI0
aF34.99999999999998
aa(lp294
F66.9090909090909
aF4.885802469135802
aF95.73076923076923
aa(lp295
F100.0
aF100.0
aF96.77777777777777
aF87.41666666666666
aa(lp296
F100.0
aF71.625
aF77.4093567251462
aF4.5993589743589745
aa(lp297
F95.0
aF87.6923076923077
aF100.0
aF98.76923076923077
aF94.4
aF11.1
aF77.5
aF3.685770750988142
aa(lp298
F6.087912087912087
aF10.785087719298243
aF90.98113207547169
aa(lp299
F41.666666666666664
aF35.583333333333336
aF35.0
aa(lp300
F55.03030303030303
aF9.908014571948998
aF68.61538461538461
aa(lp301
F53.07407407407407
aF25.978114478114474
aF89.85714285714286
aF10.555555555555555
aF76.16666666666667
aF74.26666666666668
aa(lp302
F94.33333333333333
aF9.78601567209162
aI0
aI0
aa(lp303
F7.201612903225806
aF90.0
aF11.603174603174603
aF4.1689655172413795
aa(lp304
F78.96078431372548
aF94.16666666666667
aF8.749999999999996
aF7.799999999999998
aa(lp305
F99.33333333333333
aF85.72727272727273
aF16.827235772357724
aa(lp306
F97.625
aF5.83333333333333
aF93.26315789473684
aa(lp307
F4.282748393475037
aF12.739583333333334
aF79.75
aF98.125
aa(lp308
F99.18518518518519
aF3.7058823529411766
aF6.088122605363984
aa(lp309
F98.0
aI0
aF96.57142857142857
aF70.1111111111111
aF97.94871794871794
aa(lp310
F15.869281045751631
aF84.88888888888889
aF89.28205128205127
aF92.05333333333333
aa(lp311
F10.39753086419753
aF91.8
aF7.93137254901961
aF7.628282828282829
aa(lp312
F84.89583333333333
aF64.27777777777777
aF96.66666666666667
aF89.5
aF98.0
aF98.53333333333333
aF98.41176470588235
aa(lp313
F88.39393939393939
aF12.750000000000002
aF96.66666666666667
aF1.908119658119658
aa(lp314
F97.85714285714286
aF57.6060606060606
aF78.26666666666667
aF77.97435897435898
aF17.396396396396394
aa(lp315
F98.66666666666667
aF97.6875
aF93.02173913043478
aa(lp316
F96.26666666666667
aF44.57142857142857
aI0
aF1.464373464373464
aa(lp317
F97.63636363636364
aF99.63636363636364
aF13.995833333333332
aaa(lp318
(lp319
F14.434523809523808
aF98.13333333333334
aF8.015000000000004
aa(lp320
F1.2923297491039427
aF20.232954545454547
aF35.0
aI0
aa(lp321
F5.514367816091954
aF90.6875
aF8.258008658008656
aa(lp322
F14.602380952380955
aF17.625
aF71.2051282051282
aa(lp323
F7.99047619047619
aF86.0
aF94.44444444444444
aF11.229166666666666
aa(lp324
F5.833333333333333
aF12.12
aF18.508771929824558
aF100.0
aF6.090909090909091
aa(lp325
F57.38095238095237
aF11.506481481481483
aF6.285365853658536
aa(lp326
F99.70370370370371
aF88.49122807017544
aF2.489874110563765
aa(lp327
F99.0
aF13.684615384615386
aF74.55151515151515
aa(lp328
F81.92156862745097
aF89.9090909090909
aF9.385752688172042
aF7.397435897435897
aa(lp329
F2.583900226757369
aF63.5
aF27.275362318840575
aF6.7489837398373975
aa(lp330
F6.728571428571428
aF5.703703703703702
aF13.443333333333333
aa(lp331
F60.0625
aF96.0
aF90.64285714285714
aF96.0
aF55.60000000000001
aF9.965686274509803
aa(lp332
F95.33333333333333
aF6.999999999999999
aF98.54054054054055
aF3.134782608695652
aa(lp333
F14.172222222222222
aF92.5
aF25.0
aF2.6458333333333335
aF89.0
aF18.505050505050505
aF10.77117117117117
aaa(lp334
(lp335
F23.98039215686274
aF97.71428571428571
aF3.4320859320859327
aa(lp336
F0.0
aF3.7811986863710993
aF41.666666666666664
aI0
aa(lp337
F10.927999999999999
aF11.604166666666666
aF3.950450450450451
aa(lp338
F88.92592592592592
aF6.5219047619047625
aF1.5631013016411999
aa(lp339
F6.809523809523809
aF35.0
aF96.83333333333333
aF86.51111111111112
aa(lp340
F3.810909090909091
aF6.814814814814814
aF23.95679012345679
aF89.12698412698413
aF27.7
aa(lp341
F65.0
aF60.5
aF2.664251207729468
aa(lp342
F4.301242236024844
aF65.5
aF3.654558404558406
aa(lp343
F66.40860215053763
aF8.700000000000001
aF1.6791383219954648
aa(lp344
F35.0
aF86.81818181818181
aF77.80952380952381
aF68.44444444444444
aa(lp345
F1.2727272727272727
aF4.5256410256410255
aF88.15384615384616
aF3.5746527777777777
aa(lp346
F14.43103448275862
aF8.053968253968254
aF25.43402777777778
aa(lp347
F82.4
aF94.0
aF57.06666666666665
aF82.0
aF73.87878787878788
aI0
aa(lp348
F38.33333333333333
aF35.0
aF10.740740740740739
aF4.155844155844156
aa(lp349
F82.72549019607843
aF79.0
aF97.2
aF19.030303030303028
aF68.3076923076923
aF73.29166666666666
aF95.1304347826087
aaa(lp350
(lp351
F100.0
aF87.0625
aF9.079365079365077
aa(lp352
F21.466666666666665
aF92.33333333333334
aF86.35714285714286
aa(lp353
F71.11111111111111
aF90.95454545454545
aF0.6383704146135084
aa(lp354
F9.74871794871795
aF5.416666666666666
aF34.999999999999986
aF11.923611111111112
aa(lp355
F6.828042328042327
aF80.45833333333333
aF97.57142857142857
aF93.11764705882354
aF8.139880952380953
aa(lp356
F92.55555555555556
aF93.52941176470588
aF28.33660130718954
aa(lp357
F20.916666666666664
aF80.58666666666666
aF28.312661498708007
aa(lp358
F3.130315500685871
aF9.051190476190476
aF2.414596273291925
aa(lp359
F95.28205128205128
aF69.18181818181819
aF88.59375
aF3.5359788359788364
aa(lp360
F6.679191919191919
aF7.394444444444445
aF7.362037037037036
aF74.58333333333334
aa(lp361
F100.0
aF80.85185185185186
aF11.712820512820514
aF26.68421052631579
aF93.33333333333333
aF15.36519607843137
aF86.24691358024693
aF7.569444444444445
aa(lp362
F97.71428571428571
aF19.17251461988304
aF26.855555555555554
aa(lp363
F6.6415094339622645
aF13.455172413793106
aF1.1825248756218905
aa(lp364
F71.77777777777779
aF71.66666666666667
aF3.2376543209876534
aa(lp365
F90.0
aF44.833333333333336
aF88.08333333333333
aF6.5679012345679
aF0.6744588744588745
aF12.293906810035837
aa(lp366
F3.999064721286944
aF89.91428571428571
aF5.439560439560439
aF4.630909090909091
aa(lp367
F18.333333333333336
aF1.8990222222222224
aF9.011463844797175
aF6.178492239467849
aa(lp368
F5.883116883116883
aF3.6077441077441077
aF13.858024691358025
aF6.5666666666666655
aa(lp369
F41.666666666666664
aF11.8843537414966
aF17.325396825396826
aa(lp370
F2.2651888341543516
aF96.0
aF26.584795321637426
aa(lp371
F20.26086956521739
aF97.33333333333333
aF98.53333333333333
aF13.19047619047619
aa(lp372
F29.318518518518516
aF1.518393814690111
aF5.038596491228071
aa(lp373
F0.0
aF51.38095238095239
aF35.0
aI0
aF15.310526315789476
aa(lp374
F82.38461538461539
aI0
aI0
aF7.222222222222222
aa(lp375
F1.0095238095238093
aF93.18518518518519
aF3.2080610021786495
aF14.897569444444441
aa(lp376
F57.85333333333333
aF76.2
aF1.3346774193548387
aF72.375
aF98.16216216216216
aF94.22222222222223
aF92.70256410256411
aa(lp377
F1.507891414141414
aF12.552083333333334
aF96.6086956521739
aF84.63333333333334
aa(lp378
F3.0842661691542284
aF1.799576648841355
aF8.75
aF65.18181818181819
aF9.484848484848484
aa(lp379
F0.819262038774234
aF96.41428571428571
aF5.277120315581853
aa(lp380
F87.95454545454545
aF2.9281914893617023
aI0
aF2.1026272577996714
aa(lp381
F74.46153846153847
aF12.011784511784512
aI0
aa(lp382
F14.969696969696969
aF2.0401968826907297
aF1.2931077694235587
aa(lp383
F65.83333333333333
aF66.71428571428571
aF90.45161290322581
aF97.33333333333333
aa(lp384
F35.0
aF3.1363636363636362
aF6.3524305555555545
aF81.58333333333334
aF91.26315789473684
aa(lp385
F11.362068965517242
aF7.5
aF6.673469387755102
aa(lp386
F97.75
aF7.364583333333334
aF29.116809116809115
aa(lp387
F17.68162393162393
aF8.240196078431373
aF16.455555555555556
aa(lp388
F86.91025641025641
aF23.6280193236715
aF86.78125
aF6.130000000000001
aa(lp389
F15.415999999999999
aF78.46666666666667
aF6.023460410557186
aF1.471358024691358
aa(lp390
F11.055555555555555
aF3.0968079539508118
aF13.451515151515151
aa(lp391
F90.0
aF91.33333333333333
aF88.08
aF71.0
aF86.15789473684211
aF7.5321180555555545
aa(lp392
F8.988888888888887
aF20.93148148148148
aF11.599999999999998
aF22.232323232323235
aa(lp393
F81.70588235294117
aF17.723484848484848
aF18.333333333333336
aF76.6842105263158
aF85.94117647058823
aF95.66666666666667
aF1.812422360248447
aaa(lp394
(lp395
F0.8192605668333822
aF2.490530303030303
aF5.667874396135266
aa(lp396
F0.9319635937640803
aF84.58333333333333
aF15.226984126984126
aa(lp397
F71.02083333333334
aF96.12121212121212
aF71.87179487179486
aa(lp398
F0.9336854460093895
aF8.050264550264549
aF52.666666666666664
aF3.5935897435897437
aa(lp399
F7.28042328042328
aF96.23076923076923
aF96.4
aF91.63636363636364
aF76.6842105263158
aa(lp400
F4.881954523463958
aF89.94736842105263
aF6.854166666666666
aa(lp401
F14.541666666666666
aF1.9196932100157906
aF4.351461339252682
aa(lp402
F23.307692307692307
aF15.055000000000001
aF35.0
aa(lp403
F1.6280068728522339
aF98.85714285714286
aF97.0
aF2.3021181716833894
aa(lp404
F0.40055235521418575
aF35.0
aF6.166666666666668
aF60.18181818181818
aa(lp405
F13.969230769230771
aF100.0
aF95.66666666666667
aF52.22222222222222
aF67.0
aF86.35555555555555
aI0
aF77.5
aa(lp406
F64.3
aF97.0
aF2.9104010025062657
aa(lp407
F21.2875816993464
aF20.65833333333333
aF2.693650793650794
aa(lp408
F95.6923076923077
aF9.46096096096096
aF8.916666666666663
aa(lp409
F1.9055555555555554
aF89.71428571428571
aF59.93333333333334
aF35.0
aF8.704980842911878
aF7.97
aa(lp410
F92.4375
aF94.11111111111111
aF35.0
aF3.4015594541910326
aa(lp411
F87.42105263157895
aF98.88888888888889
aF11.859770114942531
aF4.375
aa(lp412
F4.814814814814815
aF7.962962962962963
aF44.50000000000001
aF3.8888888888888884
aa(lp413
F3.741402116402116
aF91.11538461538461
aF6.3571889103804
aa(lp414
F3.1147635524798156
aF3.1607142857142856
aF4.558159722222222
aa(lp415
F13.916666666666666
aF5.84045584045584
aF26.666666666666668
aF10.97089947089947
aa(lp416
F0.8403790087463554
aF35.0
aF8.186813186813186
aa(lp417
F90.04444444444444
aF16.61111111111111
aF62.05555555555555
aF77.22222222222223
aF3.2393162393162394
aa(lp418
F57.0
aF6.826666666666666
aF15.444444444444443
aF1.1999206349206348
aa(lp419
F75.9375
aF93.31818181818181
aF7.067857142857143
aF23.534979423868307
aa(lp420
F9.394871794871793
aF15.82051282051282
aI0
aF96.0
aF96.65
aF70.45454545454545
aF98.57142857142857
aa(lp421
F88.77777777777777
aF15.638888888888888
aF19.288888888888884
aF2.2222222222222214
aa(lp422
F92.63636363636364
aF5.857843137254902
aF39.44444444444444
aF87.22222222222223
aF96.0
aa(lp423
F97.71428571428571
aF98.03571428571429
aF3.824074074074074
aa(lp424
F9.431089743589743
aF79.00606060606061
aF35.0
aF35.0
aa(lp425
F92.83333333333333
aF55.653846153846146
aF1.3833333333333333
aa(lp426
F87.40476190476191
aF20.03472222222222
aF1.8080168776371308
aa(lp427
F6.605555555555556
aF19.919191919191917
aF77.49462365591397
aF61.64705882352941
aa(lp428
F56.8
aF9.569696969696968
aF85.0
aF19.805555555555554
aF2.187205387205388
aa(lp429
F28.174603174603174
aF7.063888888888887
aF1.3508887425938116
aa(lp430
F4.0986590038314175
aF93.10526315789474
aF0.8626666666666667
aa(lp431
F10.808823529411763
aF79.35714285714286
aF76.53846153846153
aa(lp432
F29.053333333333327
aF13.625
aF7.801169590643275
aF4.317874396135266
aa(lp433
F35.0
aF46.57142857142857
aF88.89189189189189
aF3.5
aa(lp434
F5.187670485542826
aF4.661111111111111
aF58.01960784313725
aa(lp435
F20.614583333333332
aF97.83333333333333
aF7.564102564102565
aF100.0
aF80.83333333333334
aF4.442192192192191
aa(lp436
F13.04761904761905
aF5.580645161290323
aF17.209876543209877
aF0.7637067876302327
aa(lp437
F64.19444444444446
aF97.46153846153847
aF70.75
aF96.11111111111111
aF82.25
aF94.2
aF9.046212121212122
aaa(lp438
(lp439
F100.0
aF11.242753623188404
aF10.496969696969696
aa(lp440
F98.0
aF11.990476190476189
aF73.53846153846153
aa(lp441
F98.0
aF98.61538461538461
aF9.542016806722687
aa(lp442
F91.6
aF2.9397435897435904
aF94.33333333333333
aF9.444444444444445
aa(lp443
F56.444444444444436
aF83.5625
aF71.14285714285714
aI0
aF62.61111111111111
aa(lp444
F84.6
aF96.0
aF5.570476190476191
aa(lp445
F75.33333333333333
aF4.236225895316804
aF74.47916666666666
aa(lp446
F94.53333333333333
aF63.42307692307692
aF20.520202020202017
aa(lp447
F0.0
aF26.070707070707066
aI0
aF9.022556390977442
aa(lp448
F4.85978835978836
aF2.844797178130511
aF20.81333333333333
aF16.270114942528735
aa(lp449
F98.75
aF78.17857142857143
aF65.83333333333333
aF84.00000000000001
aF5.444444444444445
aF9.210573476702507
aF35.0
aF94.0
aa(lp450
F0.0
aF6.709876543209877
aF80.76923076923077
aa(lp451
F35.0
aF9.31904761904762
aF10.74074074074074
aa(lp452
F32.111111111111114
aF4.992337164750958
aF11.74329501915708
aa(lp453
F8.19047619047619
aF35.0
aF90.85714285714286
aF10.788888888888891
aI0
aF40.89999999999999
aa(lp454
F10.885714285714284
aF7.39982269503546
aF34.999999999999986
aF35.0
aa(lp455
F13.861111111111109
aF15.633333333333331
aF10.60952380952381
aF10.526748971193415
aa(lp456
F15.065925925925924
aF96.66666666666667
aF46.041666666666664
aF74.42105263157895
aa(lp457
F92.0
aF86.06382978723404
aF76.4
aa(lp458
F12.409465020576132
aF4.375
aF51.39999999999999
aa(lp459
F97.14285714285714
aF14.193181818181818
aF92.08333333333333
aF12.174303683737648
aa(lp460
F1.2032520325203255
aF0.0
aF5.0
aa(lp461
F2.421875
aF80.0
aF77.58333333333334
aI0
aF3.5
aa(lp462
F5.1190476190476195
aF11.27294685990338
aF100.0
aF4.120138888888889
aa(lp463
F25.116666666666667
aF97.8
aF7.315000000000001
aF8.918803418803419
aa(lp464
F87.35714285714286
aF5.532738095238096
aF85.1
aF58.44444444444443
aF96.55882352941177
aF62.83333333333333
aF8.109304426377596
aa(lp465
F98.0
aF2.8761904761904753
aF71.0
aF98.0
aa(lp466
F84.5
aF91.93333333333334
aF1.755952380952381
aF20.53846153846154
aF11.0
aa(lp467
F35.0
aF5.538095238095237
aF5.803763440860214
aa(lp468
F37.22222222222222
aF6.539682539682539
aF7.0634920634920615
aI0
aa(lp469
F89.35416666666667
aF6.880894308943089
aF98.34782608695652
aa(lp470
F88.46153846153847
aF8.796899224806202
aF7.148148148148148
aa(lp471
F41.666666666666664
aF98.0
aF98.85714285714286
aF67.66666666666667
aa(lp472
F18.333333333333336
aF40.41666666666667
aF7.083333333333334
aF55.44444444444443
aF1.809269162210339
aa(lp473
F41.666666666666664
aI0
aF22.467043314500945
aa(lp474
F98.8
aF85.69607843137254
aF2.3351327035537564
aa(lp475
F97.6
aF22.366666666666667
aF6.673611111111112
aa(lp476
F35.0
aF97.84615384615384
aF93.0
aF77.375
aa(lp477
F0.0
aI0
aF87.51282051282051
aF1.7651515151515151
aa(lp478
F95.77380952380952
aF5.6788194444444455
aF7.51010101010101
aa(lp479
F89.57142857142857
aF98.75
aF6.346713892168437
aF95.0
aI0
aF92.33333333333333
aa(lp480
F95.82608695652173
aF97.75
aF10.695238095238095
aF5.470679012345678
aa(lp481
F91.79999999999998
aF35.0
aF93.75
aF4.374999999999999
aF92.0
aF29.01234567901234
aF80.0
aaa(lp482
(lp483
F7.197530864197531
aF2.642045454545454
aF2.3757781550650816
aa(lp484
F92.0
aF89.76190476190474
aF78.39583333333334
aa(lp485
F100.0
aF2.173229548229548
aF10.521367521367521
aa(lp486
F19.045833333333334
aF96.0
aF3.026315789473683
aF3.6267806267806266
aa(lp487
F92.33333333333333
aF2.501157407407407
aF6.355555555555554
aF10.234375
aF94.33333333333333
aa(lp488
F90.8
aF94.30252100840336
aF6.8110161443494786
aa(lp489
F21.82222222222222
aF6.662131519274376
aF7.082561728395063
aa(lp490
F80.47368421052632
aF30.23794549266247
aF6.490123456790124
aa(lp491
F35.0
aF24.10594315245477
aF83.0
aF21.481481481481477
aa(lp492
F87.15384615384616
aF35.166666666666664
aF15.267276422764228
aF3.6898989898989893
aa(lp493
F0.0
aF41.666666666666664
aF85.33333333333333
aF95.2
aF59.0
aF94.85185185185185
aF78.39583333333333
aF4.644531249999999
aa(lp494
F21.12280701754386
aF90.4090909090909
aF14.327891156462586
aa(lp495
F9.330952380952379
aF21.644444444444442
aF10.604444444444447
aa(lp496
F23.85470085470085
aF8.331932773109244
aF34.999999999999986
aa(lp497
F96.9090909090909
aF65.0
aF15.32222222222222
aF74.33333333333333
aF2.3526315789473684
aF4.726190476190475
aa(lp498
F89.33962264150944
aF89.66666666666667
aF10.422222222222222
aF2.4864341085271318
aa(lp499
F87.7230046948357
aF52.666666666666664
aF2.0303030303030303
aF10.38888888888889
aa(lp500
F81.49462365591398
aF35.0
aI0
aF11.66666666666666
aa(lp501
F25.0
aF27.88405797101449
aF5.264790764790765
aa(lp502
F2.373036170990135
aF6.895833333333333
aF91.41666666666667
aa(lp503
F1.7063334070633343
aF34.99999999999998
aF17.261904761904763
aF20.354166666666668
aa(lp504
F3.245330459770115
aF11.666666666666666
aF5.523809523809525
aa(lp505
F86.0
aF2.4542483660130716
aF4.333333333333334
aF32.142857142857146
aF6.904761904761903
aa(lp506
F2.977777777777778
aF98.5
aF79.90476190476191
aF6.653225806451614
aa(lp507
F2.21375
aF7.975468975468976
aF8.928205128205128
aF35.0
aa(lp508
F2.4539069359086914
aF48.83333333333334
aF17.415458937198064
aF41.666666666666664
aF92.61538461538461
aF9.214814814814813
aF29.5679012345679
aa(lp509
F2.6234567901234565
aF26.447028423772608
aF3.0590277777777777
aF73.1
aa(lp510
F35.0
aF7.982142857142855
aF9.416666666666666
aF3.935515873015877
aI0
aa(lp511
F2.100840336134454
aF17.401234567901238
aF8.092753623188402
aa(lp512
F26.347826086956523
aF10.133986928104575
aI0
aF84.01587301587301
aa(lp513
F6.054421768707483
aF25.412698412698408
aF22.451388888888886
aa(lp514
F99.6
aF7.104166666666666
aF7.677489177489178
aa(lp515
F91.66666666666667
aF35.0
aF35.0
aF5.071698113207547
aa(lp516
F35.0
aF4.425881410256411
aF77.51515151515152
aF85.42857142857143
aF18.390681003584227
aa(lp517
F6.785220627325891
aI0
aF0.6028940105914821
aa(lp518
F77.58333333333333
aF87.42105263157895
aF1.7391518737672587
aa(lp519
F98.89655172413794
aF26.196969696969692
aF80.14492753623189
aa(lp520
F97.875
aF14.507936507936508
aF4.4281274281274285
aF9.646153846153844
aa(lp521
F35.0
aF35.0
aF11.98611111111111
aF4.106753812636165
aa(lp522
F90.81372549019608
aF13.1875
aF0.24150219298245615
aa(lp523
F5.7010752688172035
aI0
aF4.250457875457875
aF35.0
aF98.88888888888889
aI0
aa(lp524
F98.53333333333333
aF90.66666666666667
aF1.2650292397660814
aF4.592063492063493
aa(lp525
F11.113636363636363
aI0
aI0
aF10.133333333333335
aF50.592592592592595
aF98.0909090909091
aF3.0627705627705613
aaa(lp526
(lp527
F65.22222222222221
aF5.0
aF5.937056737588652
aa(lp528
F100.0
aF25.098412698412698
aF59.666666666666664
aa(lp529
F2.3160173160173154
aF12.065217391304348
aF3.0439814814814805
aa(lp530
F66.42592592592592
aF35.0
aF7.1325611325611336
aF12.336842105263159
aa(lp531
F98.66666666666667
aF4.753880266075388
aF9.518207282913167
aF55.2
aF6.263888888888888
aa(lp532
F52.138888888888886
aF82.75757575757575
aF8.137931034482758
aa(lp533
F96.66666666666667
aF66.94117647058823
aF1.3412058371735793
aa(lp534
F6.0673076923076925
aF6.334876543209877
aF3.3561904761904766
aa(lp535
F5.833333333333333
aF0.0
aF8.480375898286347
aF1.8968102073365227
aa(lp536
F23.50617283950617
aF72.24999999999999
aF10.247795414462079
aF8.886666666666667
aa(lp537
F1.6666666666666718
aF13.148148148148145
aF77.91111111111111
aF91.80392156862744
aF93.5
aF8.207757296466973
aI0
aF41.93333333333332
aa(lp538
F36.11111111111111
aF59.083333333333336
aF5.0
aa(lp539
F23.333333333333332
aF58.0
aF5.019841269841269
aa(lp540
F9.416666666666666
aF5.010647010647011
aF1.4734299516908222
aa(lp541
F12.211594202898551
aF60.5
aF88.22222222222223
aF21.658192090395485
aF3.345067362016515
aF13.221014492753623
aa(lp542
F17.216161616161617
aI0
aF91.14285714285714
aF0.1728395061728395
aa(lp543
F23.9484126984127
aF89.66666666666667
aF2.3927793339558048
aF1.6666666666666718
aa(lp544
F96.52702702702703
aI0
aI0
aF8.749999999999996
aa(lp545
F94.5
aF87.45945945945945
aF35.0
aaaa(lp546
g92
ag124
ag246
ag318
ag438
ag526
aa(lp547
g2
ag47
ag156
ag201
ag286
ag334
ag350
ag394
ag482
aa.